target datalayout = "e-m:e-p270:32:32-p271:32:32-p272:64:64-i64:64-i128:128-f80:128-n8:16:32:64-S128"
target triple = "x86_64-unknown-linux-gnu"

%struct.tm = type { i32, i32, i32, i32, i32, i32, i32, i32, i32, i64, ptr }

; Function Attrs: mustprogress uwtable
define dso_local void @_ZN2EA4StdC12TmToDateTimeERK2tmRNS0_8DateTimeE(ptr noundef nonnull align 8 dereferenceable(56) %time, ptr noundef nonnull align 8 dereferenceable(12) %dateTime) #0 {
entry:
  %time.addr = alloca ptr, align 8
  %dateTime.addr = alloca ptr, align 8
  store ptr %time, ptr %time.addr, align 8
  store ptr %dateTime, ptr %dateTime.addr, align 8
  %0 = load ptr, ptr %dateTime.addr, align 8
  %1 = load ptr, ptr %time.addr, align 8
  %tm_year = getelementptr inbounds %struct.tm, ptr %1, i32 0, i32 5
  %2 = load i32, ptr %tm_year, align 4
  %add = add nsw i32 %2, 1900
  %3 = load ptr, ptr %time.addr, align 8
  %tm_mon = getelementptr inbounds %struct.tm, ptr %3, i32 0, i32 4
  %4 = load i32, ptr %tm_mon, align 8
  %add1 = add nsw i32 %4, 1
  %5 = load ptr, ptr %time.addr, align 8
  %tm_mday = getelementptr inbounds %struct.tm, ptr %5, i32 0, i32 3
  %6 = load i32, ptr %tm_mday, align 4
  %7 = load ptr, ptr %time.addr, align 8
  %tm_hour = getelementptr inbounds %struct.tm, ptr %7, i32 0, i32 2
  %8 = load i32, ptr %tm_hour, align 8
  %9 = load ptr, ptr %time.addr, align 8
  %tm_min = getelementptr inbounds %struct.tm, ptr %9, i32 0, i32 1
  %10 = load i32, ptr %tm_min, align 4
  %11 = load ptr, ptr %time.addr, align 8
  %tm_sec = getelementptr inbounds %struct.tm, ptr %11, i32 0, i32 0
  %12 = load i32, ptr %tm_sec, align 8
  call void @_ZN2EA4StdC8DateTime3SetEjjjjjjj(ptr noundef nonnull align 8 dereferenceable(12) %0, i32 noundef %add, i32 noundef %add1, i32 noundef %6, i32 noundef %8, i32 noundef %10, i32 noundef %12, i32 noundef -1)
  ret void
}