; Function Attrs: mustprogress nofree nosync nounwind willreturn memory(argmem: readwrite) uwtable
define dso_local void @_ZN2EA4StdC12TmToDateTimeERK2tmRNS0_8DateTimeE(ptr noundef nonnull readonly align 8 captures(none) dereferenceable(56) %time, ptr noundef nonnull align 8 dereferenceable(12) %dateTime) local_unnamed_addr #8 {
entry:
  %tm_year = getelementptr inbounds nuw i8, ptr %time, i64 20
  %0 = load i32, ptr %tm_year, align 4
  %add = add nsw i32 %0, 1900
  %tm_mon = getelementptr inbounds nuw i8, ptr %time, i64 16
  %1 = load i32, ptr %tm_mon, align 8
  %add1 = add nsw i32 %1, 1
  %tm_mday = getelementptr inbounds nuw i8, ptr %time, i64 12
  %2 = load i32, ptr %tm_mday, align 4
  %tm_hour = getelementptr inbounds nuw i8, ptr %time, i64 8
  %3 = load i32, ptr %tm_hour, align 8
  %tm_min = getelementptr inbounds nuw i8, ptr %time, i64 4
  %4 = load i32, ptr %tm_min, align 4
  %5 = load i32, ptr %time, align 8
  tail call void @_ZN2EA4StdC8DateTime3SetEjjjjjjj(ptr noundef nonnull align 8 dereferenceable(12) %dateTime, i32 noundef %add, i32 noundef %add1, i32 noundef %2, i32 noundef %3, i32 noundef %4, i32 noundef %5, i32 noundef -1)
  ret void
}